; ModuleID = '12/183.c'
source_filename = "12/183.c"
target datalayout = "e-m:e-p270:32:32-p271:32:32-p272:64:64-i64:64-f80:128-n8:16:32:64-S128"
target triple = "x86_64-pc-linux-gnu"

@.str = private unnamed_addr constant [3 x i8] c"%d\00", align 1
@.str.1 = private unnamed_addr constant [4 x i8] c"%d\0A\00", align 1

; Function Attrs: noinline nounwind uwtable
define dso_local i32 @main() #0 {
  %1 = alloca i32, align 4
  %2 = alloca [15 x [15 x i32]], align 16
  %3 = alloca [15 x i32], align 16
  %4 = alloca i32, align 4
  %5 = alloca i32, align 4
  %6 = alloca i32, align 4
  %7 = alloca [15 x i32], align 16
  %8 = alloca i32, align 4
  store i32 0, i32* %1, align 4
  %9 = bitcast [15 x [15 x i32]]* %2 to i8*
  call void @llvm.memset.p0i8.i64(i8* align 16 %9, i8 0, i64 900, i1 false)
  %10 = bitcast [15 x i32]* %3 to i8*
  call void @llvm.memset.p0i8.i64(i8* align 16 %10, i8 0, i64 60, i1 false)
  %11 = bitcast [15 x i32]* %7 to i8*
  call void @llvm.memset.p0i8.i64(i8* align 16 %11, i8 0, i64 60, i1 false)
  store i32 0, i32* %4, align 4
  br label %12

12:                                               ; preds = %64, %0
  %13 = load i32, i32* %4, align 4
  %14 = icmp slt i32 %13, 15
  br i1 %14, label %15, label %67

15:                                               ; preds = %12
  store i32 0, i32* %5, align 4
  br label %16

16:                                               ; preds = %51, %15
  %17 = load i32, i32* %5, align 4
  %18 = icmp slt i32 %17, 20
  br i1 %18, label %19, label %54

19:                                               ; preds = %16
  %20 = load i32, i32* %4, align 4
  %21 = sext i32 %20 to i64
  %22 = getelementptr inbounds [15 x [15 x i32]], [15 x [15 x i32]]* %2, i64 0, i64 %21
  %23 = load i32, i32* %5, align 4
  %24 = sext i32 %23 to i64
  %25 = getelementptr inbounds [15 x i32], [15 x i32]* %22, i64 0, i64 %24
  %26 = call i32 (i8*, ...) @__isoc99_scanf(i8* getelementptr inbounds ([3 x i8], [3 x i8]* @.str, i64 0, i64 0), i32* %25)
  %27 = load i32, i32* %4, align 4
  %28 = sext i32 %27 to i64
  %29 = getelementptr inbounds [15 x [15 x i32]], [15 x [15 x i32]]* %2, i64 0, i64 %28
  %30 = load i32, i32* %5, align 4
  %31 = sext i32 %30 to i64
  %32 = getelementptr inbounds [15 x i32], [15 x i32]* %29, i64 0, i64 %31
  %33 = load i32, i32* %32, align 4
  %34 = icmp eq i32 %33, -1
  br i1 %34, label %35, label %36

35:                                               ; preds = %19
  br label %54

36:                                               ; preds = %19
  %37 = load i32, i32* %4, align 4
  %38 = sext i32 %37 to i64
  %39 = getelementptr inbounds [15 x [15 x i32]], [15 x [15 x i32]]* %2, i64 0, i64 %38
  %40 = load i32, i32* %5, align 4
  %41 = sext i32 %40 to i64
  %42 = getelementptr inbounds [15 x i32], [15 x i32]* %39, i64 0, i64 %41
  %43 = load i32, i32* %42, align 4
  %44 = icmp eq i32 %43, 0
  br i1 %44, label %45, label %50

45:                                               ; preds = %36
  %46 = load i32, i32* %5, align 4
  %47 = load i32, i32* %4, align 4
  %48 = sext i32 %47 to i64
  %49 = getelementptr inbounds [15 x i32], [15 x i32]* %7, i64 0, i64 %48
  store i32 %46, i32* %49, align 4
  br label %54

50:                                               ; preds = %36
  br label %51

51:                                               ; preds = %50
  %52 = load i32, i32* %5, align 4
  %53 = add nsw i32 %52, 1
  store i32 %53, i32* %5, align 4
  br label %16

54:                                               ; preds = %45, %35, %16
  %55 = load i32, i32* %4, align 4
  %56 = sext i32 %55 to i64
  %57 = getelementptr inbounds [15 x [15 x i32]], [15 x [15 x i32]]* %2, i64 0, i64 %56
  %58 = getelementptr inbounds [15 x i32], [15 x i32]* %57, i64 0, i64 0
  %59 = load i32, i32* %58, align 4
  %60 = icmp eq i32 %59, -1
  br i1 %60, label %61, label %63

61:                                               ; preds = %54
  %62 = load i32, i32* %4, align 4
  store i32 %62, i32* %8, align 4
  br label %67

63:                                               ; preds = %54
  br label %64

64:                                               ; preds = %63
  %65 = load i32, i32* %4, align 4
  %66 = add nsw i32 %65, 1
  store i32 %66, i32* %4, align 4
  br label %12

67:                                               ; preds = %61, %12
  store i32 0, i32* %4, align 4
  br label %68

68:                                               ; preds = %125, %67
  %69 = load i32, i32* %4, align 4
  %70 = load i32, i32* %8, align 4
  %71 = icmp slt i32 %69, %70
  br i1 %71, label %72, label %128

72:                                               ; preds = %68
  store i32 0, i32* %5, align 4
  br label %73

73:                                               ; preds = %116, %72
  %74 = load i32, i32* %5, align 4
  %75 = load i32, i32* %4, align 4
  %76 = sext i32 %75 to i64
  %77 = getelementptr inbounds [15 x i32], [15 x i32]* %7, i64 0, i64 %76
  %78 = load i32, i32* %77, align 4
  %79 = icmp slt i32 %74, %78
  br i1 %79, label %80, label %119

80:                                               ; preds = %73
  store i32 0, i32* %6, align 4
  br label %81

81:                                               ; preds = %112, %80
  %82 = load i32, i32* %6, align 4
  %83 = load i32, i32* %4, align 4
  %84 = sext i32 %83 to i64
  %85 = getelementptr inbounds [15 x i32], [15 x i32]* %7, i64 0, i64 %84
  %86 = load i32, i32* %85, align 4
  %87 = icmp slt i32 %82, %86
  br i1 %87, label %88, label %115

88:                                               ; preds = %81
  %89 = load i32, i32* %4, align 4
  %90 = sext i32 %89 to i64
  %91 = getelementptr inbounds [15 x [15 x i32]], [15 x [15 x i32]]* %2, i64 0, i64 %90
  %92 = load i32, i32* %6, align 4
  %93 = sext i32 %92 to i64
  %94 = getelementptr inbounds [15 x i32], [15 x i32]* %91, i64 0, i64 %93
  %95 = load i32, i32* %94, align 4
  %96 = load i32, i32* %4, align 4
  %97 = sext i32 %96 to i64
  %98 = getelementptr inbounds [15 x [15 x i32]], [15 x [15 x i32]]* %2, i64 0, i64 %97
  %99 = load i32, i32* %5, align 4
  %100 = sext i32 %99 to i64
  %101 = getelementptr inbounds [15 x i32], [15 x i32]* %98, i64 0, i64 %100
  %102 = load i32, i32* %101, align 4
  %103 = mul nsw i32 2, %102
  %104 = icmp eq i32 %95, %103
  br i1 %104, label %105, label %111

105:                                              ; preds = %88
  %106 = load i32, i32* %4, align 4
  %107 = sext i32 %106 to i64
  %108 = getelementptr inbounds [15 x i32], [15 x i32]* %3, i64 0, i64 %107
  %109 = load i32, i32* %108, align 4
  %110 = add nsw i32 %109, 1
  store i32 %110, i32* %108, align 4
  br label %111

111:                                              ; preds = %105, %88
  br label %112

112:                                              ; preds = %111
  %113 = load i32, i32* %6, align 4
  %114 = add nsw i32 %113, 1
  store i32 %114, i32* %6, align 4
  br label %81

115:                                              ; preds = %81
  br label %116

116:                                              ; preds = %115
  %117 = load i32, i32* %5, align 4
  %118 = add nsw i32 %117, 1
  store i32 %118, i32* %5, align 4
  br label %73

119:                                              ; preds = %73
  %120 = load i32, i32* %4, align 4
  %121 = sext i32 %120 to i64
  %122 = getelementptr inbounds [15 x i32], [15 x i32]* %3, i64 0, i64 %121
  %123 = load i32, i32* %122, align 4
  %124 = call i32 (i8*, ...) @printf(i8* getelementptr inbounds ([4 x i8], [4 x i8]* @.str.1, i64 0, i64 0), i32 %123)
  br label %125

125:                                              ; preds = %119
  %126 = load i32, i32* %4, align 4
  %127 = add nsw i32 %126, 1
  store i32 %127, i32* %4, align 4
  br label %68

128:                                              ; preds = %68
  ret i32 0
}

; Function Attrs: argmemonly nounwind willreturn
declare void @llvm.memset.p0i8.i64(i8* nocapture writeonly, i8, i64, i1 immarg) #1

declare dso_local i32 @__isoc99_scanf(i8*, ...) #2

declare dso_local i32 @printf(i8*, ...) #2


!llvm.module.flags = !{!0}
!llvm.ident = !{!1}

!0 = !{i32 1, !"wchar_size", i32 4}
!1 = !{!"clang version 10.0.0-4ubuntu1 "}
